target datalayout = "e-m:e-p270:32:32-p271:32:32-p272:64:64-i64:64-i128:128-f80:128-n8:16:32:64-S128"
target triple = "x86_64-pc-linux-gnu"

%struct.FFIOContext = type { %struct.AVIOContext, ptr, i32, i32, i64, i64, i64, i64, i32, i32, i32, i64 }
%struct.AVIOContext = type { ptr, ptr, i32, ptr, ptr, ptr, ptr, ptr, ptr, i64, i32, i32, i32, i32, i32, i64, ptr, ptr, ptr, ptr, i32, i32, ptr, ptr, ptr, i32, ptr, i64, i64 }

@.str.11 = private unnamed_addr constant [37 x i8] c"Truncating packet of size %d to %ld\0A\00", align 1

; Function Attrs: nounwind uwtable
define i64 @avio_size(ptr noundef %0) #0 {
  %2 = alloca i64, align 8
  %3 = alloca ptr, align 8
  %4 = alloca ptr, align 8
  %5 = alloca i64, align 8
  %6 = alloca i32, align 4
  store ptr %0, ptr %3, align 8, !tbaa !14
  call void @llvm.lifetime.start.p0(i64 8, ptr %4) #12
  %7 = load ptr, ptr %3, align 8, !tbaa !14
  %8 = call ptr @ffiocontext(ptr noundef %7)
  store ptr %8, ptr %4, align 8, !tbaa !4
  call void @llvm.lifetime.start.p0(i64 8, ptr %5) #12
  %9 = load ptr, ptr %3, align 8, !tbaa !14
  %10 = icmp ne ptr %9, null
  br i1 %10, label %12, label %11

11:                                               ; preds = %1
  store i64 -22, ptr %2, align 8
  store i32 1, ptr %6, align 4
  br label %63

12:                                               ; preds = %1
  %13 = load ptr, ptr %4, align 8, !tbaa !4
  %14 = getelementptr inbounds nuw %struct.FFIOContext, ptr %13, i32 0, i32 11
  %15 = load i64, ptr %14, align 8, !tbaa !59
  %16 = icmp ne i64 %15, 0
  br i1 %16, label %17, label %21

17:                                               ; preds = %12
  %18 = load ptr, ptr %4, align 8, !tbaa !4
  %19 = getelementptr inbounds nuw %struct.FFIOContext, ptr %18, i32 0, i32 11
  %20 = load i64, ptr %19, align 8, !tbaa !59
  store i64 %20, ptr %2, align 8
  store i32 1, ptr %6, align 4
  br label %63

21:                                               ; preds = %12
  %22 = load ptr, ptr %3, align 8, !tbaa !14
  %23 = getelementptr inbounds nuw %struct.AVIOContext, ptr %22, i32 0, i32 8
  %24 = load ptr, ptr %23, align 8, !tbaa !29
  %25 = icmp ne ptr %24, null
  br i1 %25, label %27, label %26

26:                                               ; preds = %21
  store i64 -38, ptr %2, align 8
  store i32 1, ptr %6, align 4
  br label %63

27:                                               ; preds = %21
  %28 = load ptr, ptr %3, align 8, !tbaa !14
  %29 = getelementptr inbounds nuw %struct.AVIOContext, ptr %28, i32 0, i32 8
  %30 = load ptr, ptr %29, align 8, !tbaa !29
  %31 = load ptr, ptr %3, align 8, !tbaa !14
  %32 = getelementptr inbounds nuw %struct.AVIOContext, ptr %31, i32 0, i32 5
  %33 = load ptr, ptr %32, align 8, !tbaa !25
  %34 = call i64 %30(ptr noundef %33, i64 noundef 0, i32 noundef 65536)
  store i64 %34, ptr %5, align 8, !tbaa !53
  %35 = load i64, ptr %5, align 8, !tbaa !53
  %36 = icmp slt i64 %35, 0
  br i1 %36, label %37, label %61

37:                                               ; preds = %27
  %38 = load ptr, ptr %3, align 8, !tbaa !14
  %39 = getelementptr inbounds nuw %struct.AVIOContext, ptr %38, i32 0, i32 8
  %40 = load ptr, ptr %39, align 8, !tbaa !29
  %41 = load ptr, ptr %3, align 8, !tbaa !14
  %42 = getelementptr inbounds nuw %struct.AVIOContext, ptr %41, i32 0, i32 5
  %43 = load ptr, ptr %42, align 8, !tbaa !25
  %44 = call i64 %40(ptr noundef %43, i64 noundef -1, i32 noundef 2)
  store i64 %44, ptr %5, align 8, !tbaa !53
  %45 = icmp slt i64 %44, 0
  br i1 %45, label %46, label %48

46:                                               ; preds = %37
  %47 = load i64, ptr %5, align 8, !tbaa !53
  store i64 %47, ptr %2, align 8
  store i32 1, ptr %6, align 4
  br label %63

48:                                               ; preds = %37
  %49 = load i64, ptr %5, align 8, !tbaa !53
  %50 = add nsw i64 %49, 1
  store i64 %50, ptr %5, align 8, !tbaa !53
  %51 = load ptr, ptr %3, align 8, !tbaa !14
  %52 = getelementptr inbounds nuw %struct.AVIOContext, ptr %51, i32 0, i32 8
  %53 = load ptr, ptr %52, align 8, !tbaa !29
  %54 = load ptr, ptr %3, align 8, !tbaa !14
  %55 = getelementptr inbounds nuw %struct.AVIOContext, ptr %54, i32 0, i32 5
  %56 = load ptr, ptr %55, align 8, !tbaa !25
  %57 = load ptr, ptr %3, align 8, !tbaa !14
  %58 = getelementptr inbounds nuw %struct.AVIOContext, ptr %57, i32 0, i32 9
  %59 = load i64, ptr %58, align 8, !tbaa !30
  %60 = call i64 %53(ptr noundef %56, i64 noundef %59, i32 noundef 0)
  br label %61

61:                                               ; preds = %48, %27
  %62 = load i64, ptr %5, align 8, !tbaa !53
  store i64 %62, ptr %2, align 8
  store i32 1, ptr %6, align 4
  br label %63

63:                                               ; preds = %61, %46, %26, %17, %11
  call void @llvm.lifetime.end.p0(i64 8, ptr %5) #12
  call void @llvm.lifetime.end.p0(i64 8, ptr %4) #12
  %64 = load i64, ptr %2, align 8
  ret i64 %64
}

; Function Attrs: alwaysinline nounwind uwtable
define internal i64 @avio_tell(ptr noundef %0) #5 {
  %2 = alloca ptr, align 8
  store ptr %0, ptr %2, align 8, !tbaa !14
  %3 = load ptr, ptr %2, align 8, !tbaa !14
  %4 = call i64 @avio_seek(ptr noundef %3, i64 noundef 0, i32 noundef 1)
  ret i64 %4
}

; Function Attrs: alwaysinline nounwind uwtable
define internal ptr @ffiocontext(ptr noundef %0) #5 {
  %2 = alloca ptr, align 8
  store ptr %0, ptr %2, align 8, !tbaa !14
  %3 = load ptr, ptr %2, align 8, !tbaa !14
  ret ptr %3
}

; Function Attrs: nounwind uwtable
define i32 @ffio_limit(ptr noundef %0, i32 noundef %1) #0 {
  %3 = alloca ptr, align 8
  %4 = alloca i32, align 4
  %5 = alloca ptr, align 8
  %6 = alloca i64, align 8
  %7 = alloca i64, align 8
  %8 = alloca i64, align 8
  store ptr %0, ptr %3, align 8, !tbaa !14
  store i32 %1, ptr %4, align 4, !tbaa !11
  call void @llvm.lifetime.start.p0(i64 8, ptr %5) #12
  %9 = load ptr, ptr %3, align 8, !tbaa !14
  %10 = call ptr @ffiocontext(ptr noundef %9)
  store ptr %10, ptr %5, align 8, !tbaa !4
  %11 = load ptr, ptr %5, align 8, !tbaa !4
  %12 = getelementptr inbounds nuw %struct.FFIOContext, ptr %11, i32 0, i32 5
  %13 = load i64, ptr %12, align 8, !tbaa !92
  %14 = icmp sge i64 %13, 0
  br i1 %14, label %15, label %110

15:                                               ; preds = %2
  call void @llvm.lifetime.start.p0(i64 8, ptr %6) #12
  %16 = load ptr, ptr %3, align 8, !tbaa !14
  %17 = call i64 @avio_tell(ptr noundef %16)
  store i64 %17, ptr %6, align 8, !tbaa !53
  call void @llvm.lifetime.start.p0(i64 8, ptr %7) #12
  %18 = load ptr, ptr %5, align 8, !tbaa !4
  %19 = getelementptr inbounds nuw %struct.FFIOContext, ptr %18, i32 0, i32 5
  %20 = load i64, ptr %19, align 8, !tbaa !92
  %21 = load i64, ptr %6, align 8, !tbaa !53
  %22 = sub nsw i64 %20, %21
  store i64 %22, ptr %7, align 8, !tbaa !53
  %23 = load i64, ptr %7, align 8, !tbaa !53
  %24 = load i32, ptr %4, align 4, !tbaa !11
  %25 = sext i32 %24 to i64
  %26 = icmp slt i64 %23, %25
  br i1 %26, label %27, label %76

27:                                               ; preds = %15
  call void @llvm.lifetime.start.p0(i64 8, ptr %8) #12
  %28 = load ptr, ptr %3, align 8, !tbaa !14
  %29 = call i64 @avio_size(ptr noundef %28)
  store i64 %29, ptr %8, align 8, !tbaa !53
  %30 = load ptr, ptr %5, align 8, !tbaa !4
  %31 = getelementptr inbounds nuw %struct.FFIOContext, ptr %30, i32 0, i32 5
  %32 = load i64, ptr %31, align 8, !tbaa !92
  %33 = icmp ne i64 %32, 0
  br i1 %33, label %34, label %40

34:                                               ; preds = %27
  %35 = load ptr, ptr %5, align 8, !tbaa !4
  %36 = getelementptr inbounds nuw %struct.FFIOContext, ptr %35, i32 0, i32 5
  %37 = load i64, ptr %36, align 8, !tbaa !92
  %38 = load i64, ptr %8, align 8, !tbaa !53
  %39 = icmp slt i64 %37, %38
  br i1 %39, label %40, label %50

40:                                               ; preds = %34, %27
  %41 = load i64, ptr %8, align 8, !tbaa !53
  %42 = load i64, ptr %8, align 8, !tbaa !53
  %43 = icmp ne i64 %42, 0
  %44 = xor i1 %43, true
  %45 = zext i1 %44 to i32
  %46 = sext i32 %45 to i64
  %47 = sub nsw i64 %41, %46
  %48 = load ptr, ptr %5, align 8, !tbaa !4
  %49 = getelementptr inbounds nuw %struct.FFIOContext, ptr %48, i32 0, i32 5
  store i64 %47, ptr %49, align 8, !tbaa !92
  br label %50

50:                                               ; preds = %40, %34
  %51 = load i64, ptr %6, align 8, !tbaa !53
  %52 = load ptr, ptr %5, align 8, !tbaa !4
  %53 = getelementptr inbounds nuw %struct.FFIOContext, ptr %52, i32 0, i32 5
  %54 = load i64, ptr %53, align 8, !tbaa !92
  %55 = icmp sgt i64 %51, %54
  br i1 %55, label %56, label %64

56:                                               ; preds = %50
  %57 = load ptr, ptr %5, align 8, !tbaa !4
  %58 = getelementptr inbounds nuw %struct.FFIOContext, ptr %57, i32 0, i32 5
  %59 = load i64, ptr %58, align 8, !tbaa !92
  %60 = icmp sge i64 %59, 0
  br i1 %60, label %61, label %64

61:                                               ; preds = %56
  %62 = load ptr, ptr %5, align 8, !tbaa !4
  %63 = getelementptr inbounds nuw %struct.FFIOContext, ptr %62, i32 0, i32 5
  store i64 -5, ptr %63, align 8, !tbaa !92
  br label %64

64:                                               ; preds = %61, %56, %50
  %65 = load ptr, ptr %5, align 8, !tbaa !4
  %66 = getelementptr inbounds nuw %struct.FFIOContext, ptr %65, i32 0, i32 5
  %67 = load i64, ptr %66, align 8, !tbaa !92
  %68 = icmp sge i64 %67, 0
  br i1 %68, label %69, label %75

69:                                               ; preds = %64
  %70 = load ptr, ptr %5, align 8, !tbaa !4
  %71 = getelementptr inbounds nuw %struct.FFIOContext, ptr %70, i32 0, i32 5
  %72 = load i64, ptr %71, align 8, !tbaa !92
  %73 = load i64, ptr %6, align 8, !tbaa !53
  %74 = sub nsw i64 %72, %73
  store i64 %74, ptr %7, align 8, !tbaa !53
  br label %75

75:                                               ; preds = %69, %64
  call void @llvm.lifetime.end.p0(i64 8, ptr %8) #12
  br label %76

76:                                               ; preds = %75, %15
  %77 = load ptr, ptr %5, align 8, !tbaa !4
  %78 = getelementptr inbounds nuw %struct.FFIOContext, ptr %77, i32 0, i32 5
  %79 = load i64, ptr %78, align 8, !tbaa !92
  %80 = icmp sge i64 %79, 0
  br i1 %80, label %81, label %109

81:                                               ; preds = %76
  %82 = load i64, ptr %7, align 8, !tbaa !53
  %83 = load i32, ptr %4, align 4, !tbaa !11
  %84 = sext i32 %83 to i64
  %85 = icmp slt i64 %82, %84
  br i1 %85, label %86, label %109

86:                                               ; preds = %81
  %87 = load i32, ptr %4, align 4, !tbaa !11
  %88 = icmp sgt i32 %87, 1
  br i1 %88, label %89, label %109

89:                                               ; preds = %86
  %90 = load i64, ptr %7, align 8, !tbaa !53
  %91 = icmp ne i64 %90, 0
  %92 = select i1 %91, i32 16, i32 48
  %93 = load i32, ptr %4, align 4, !tbaa !11
  %94 = load i64, ptr %7, align 8, !tbaa !53
  %95 = load i64, ptr %7, align 8, !tbaa !53
  %96 = icmp ne i64 %95, 0
  %97 = xor i1 %96, true
  %98 = zext i1 %97 to i32
  %99 = sext i32 %98 to i64
  %100 = add nsw i64 %94, %99
  call void (ptr, i32, ptr, ...) @av_log(ptr noundef null, i32 noundef %92, ptr noundef @.str.11, i32 noundef %93, i64 noundef %100)
  %101 = load i64, ptr %7, align 8, !tbaa !53
  %102 = load i64, ptr %7, align 8, !tbaa !53
  %103 = icmp ne i64 %102, 0
  %104 = xor i1 %103, true
  %105 = zext i1 %104 to i32
  %106 = sext i32 %105 to i64
  %107 = add nsw i64 %101, %106
  %108 = trunc i64 %107 to i32
  store i32 %108, ptr %4, align 4, !tbaa !11
  br label %109

109:                                              ; preds = %89, %86, %81, %76
  call void @llvm.lifetime.end.p0(i64 8, ptr %7) #12
  call void @llvm.lifetime.end.p0(i64 8, ptr %6) #12
  br label %110

110:                                              ; preds = %109, %2
  %111 = load i32, ptr %4, align 4, !tbaa !11
  call void @llvm.lifetime.end.p0(i64 8, ptr %5) #12
  ret i32 %111
}