; Function Attrs: nounwind uwtable
define noundef i32 @ffio_limit(ptr noundef %0, i32 noundef %1) local_unnamed_addr #3 {
  %3 = getelementptr inbounds nuw i8, ptr %0, i64 232
  %4 = load i64, ptr %3, align 8, !tbaa !71
  %5 = icmp sgt i64 %4, -1
  br i1 %5, label %6, label %56

6:                                                ; preds = %2
  %7 = tail call i64 @avio_seek(ptr noundef nonnull %0, i64 noundef 0, i32 noundef 1)
  %8 = load i64, ptr %3, align 8, !tbaa !71
  %9 = sub nsw i64 %8, %7
  %10 = sext i32 %1 to i64
  %11 = icmp slt i64 %9, %10
  br i1 %11, label %12, label %46

12:                                               ; preds = %6
  %13 = getelementptr inbounds nuw i8, ptr %0, i64 272
  %14 = load i64, ptr %13, align 8, !tbaa !37
  %.not22.i = icmp eq i64 %14, 0
  br i1 %.not22.i, label %15, label %avio_size.exit

15:                                               ; preds = %12
  %16 = getelementptr inbounds nuw i8, ptr %0, i64 64
  %17 = load ptr, ptr %16, align 8, !tbaa !23
  %.not23.i = icmp eq ptr %17, null
  br i1 %.not23.i, label %avio_size.exit, label %18

18:                                               ; preds = %15
  %19 = getelementptr inbounds nuw i8, ptr %0, i64 40
  %20 = load ptr, ptr %19, align 8, !tbaa !18
  %21 = tail call i64 %17(ptr noundef %20, i64 noundef 0, i32 noundef 65536) #14
  %22 = icmp slt i64 %21, 0
  br i1 %22, label %23, label %avio_size.exit

23:                                               ; preds = %18
  %24 = load ptr, ptr %16, align 8, !tbaa !23
  %25 = load ptr, ptr %19, align 8, !tbaa !18
  %26 = tail call i64 %24(ptr noundef %25, i64 noundef -1, i32 noundef 2) #14
  %27 = icmp slt i64 %26, 0
  br i1 %27, label %avio_size.exit, label %28

28:                                               ; preds = %23
  %29 = add nuw nsw i64 %26, 1
  %30 = load ptr, ptr %16, align 8, !tbaa !23
  %31 = load ptr, ptr %19, align 8, !tbaa !18
  %32 = getelementptr inbounds nuw i8, ptr %0, i64 72
  %33 = load i64, ptr %32, align 8, !tbaa !27
  %34 = tail call i64 %30(ptr noundef %31, i64 noundef %33, i32 noundef 0) #14
  br label %avio_size.exit

avio_size.exit:                                   ; preds = %12, %15, %18, %23, %28
  %.016.i = phi i64 [ %14, %12 ], [ -38, %15 ], [ %26, %23 ], [ %29, %28 ], [ %21, %18 ]
  %35 = load i64, ptr %3, align 8, !tbaa !71
  %.not = icmp eq i64 %35, 0
  %36 = icmp slt i64 %35, %.016.i
  %or.cond42 = select i1 %.not, i1 true, i1 %36
  br i1 %or.cond42, label %37, label %39

37:                                               ; preds = %avio_size.exit
  %.not40 = icmp eq i64 %.016.i, 0
  %38 = select i1 %.not40, i64 -1, i64 %.016.i
  store i64 %38, ptr %3, align 8, !tbaa !71
  br label %39

39:                                               ; preds = %avio_size.exit, %37
  %40 = phi i64 [ %35, %avio_size.exit ], [ %38, %37 ]
  %.fr = freeze i64 %40
  %41 = icmp sgt i64 %7, %.fr
  %42 = icmp sgt i64 %.fr, -1
  %or.cond43 = and i1 %41, %42
  br i1 %or.cond43, label %.thread45, label %43

.thread45:                                        ; preds = %39
  store i64 -5, ptr %3, align 8, !tbaa !71
  br label %56

43:                                               ; preds = %39
  %44 = sub nsw i64 %.fr, %7
  %45 = icmp slt i64 %.fr, 0
  %spec.select = select i1 %45, i64 %9, i64 %44
  br label %46

46:                                               ; preds = %43, %6
  %47 = phi i64 [ %8, %6 ], [ %.fr, %43 ]
  %.032 = phi i64 [ %9, %6 ], [ %spec.select, %43 ]
  %48 = icmp sgt i64 %47, -1
  br i1 %48, label %49, label %56

49:                                               ; preds = %46
  %50 = icmp slt i64 %.032, %10
  %51 = icmp sgt i32 %1, 1
  %or.cond = and i1 %51, %50
  br i1 %or.cond, label %52, label %56

52:                                               ; preds = %49
  %.not41 = icmp eq i64 %.032, 0
  %53 = select i1 %.not41, i32 48, i32 16
  %54 = tail call i64 @llvm.umax.i64(i64 %.032, i64 1)
  tail call void (ptr, i32, ptr, ...) @av_log(ptr noundef null, i32 noundef %53, ptr noundef nonnull @.str.11, i32 noundef %1, i64 noundef %54) #14
  %55 = trunc i64 %54 to i32
  br label %56

56:                                               ; preds = %.thread45, %46, %49, %52, %2
  %.0 = phi i32 [ %1, %2 ], [ %55, %52 ], [ %1, %49 ], [ %1, %46 ], [ %1, %.thread45 ]
  ret i32 %.0
}